target datalayout = "e-m:e-p270:32:32-p271:32:32-p272:64:64-i64:64-i128:128-f80:128-n8:16:32:64-S128"
target triple = "x86_64-pc-linux-gnu"

%struct.hb_font_funcs_t = type { %struct.hb_object_header_t, ptr, ptr, %"union.hb_font_funcs_t::get_t" }
%struct.hb_object_header_t = type { %struct.hb_reference_count_t, %struct.hb_atomic_int_t, %struct.hb_atomic_ptr_t }
%struct.hb_reference_count_t = type { %struct.hb_atomic_int_t }
%struct.hb_atomic_int_t = type { i32 }
%struct.hb_atomic_ptr_t = type { ptr }
%"union.hb_font_funcs_t::get_t" = type { %"struct.hb_font_funcs_t::get_t::get_funcs_t" }
%"struct.hb_font_funcs_t::get_t::get_funcs_t" = type { ptr, ptr, ptr, ptr, ptr, ptr, ptr, ptr, ptr, ptr, ptr, ptr, ptr, ptr, ptr, ptr, ptr, ptr, ptr }
%struct.hb_atomic_ptr_t.1 = type { ptr }
%struct.hb_atomic_ptr_t.5 = type { ptr }
%struct.hb_font_t = type { %struct.hb_object_header_t, i32, i32, ptr, ptr, i32, i32, float, float, i8, i32, i32, float, float, float, float, i64, i64, i32, i32, float, i32, i32, ptr, ptr, ptr, ptr, ptr, %struct.hb_shaper_object_dataset_t }
%struct.hb_shaper_object_dataset_t = type { ptr, %struct.hb_shaper_lazy_loader_t, %struct.hb_shaper_lazy_loader_t.2 }
%struct.hb_shaper_lazy_loader_t = type { %struct.hb_lazy_loader_t }
%struct.hb_lazy_loader_t = type { %struct.hb_atomic_ptr_t.1 }
%struct.hb_shaper_lazy_loader_t.2 = type { %struct.hb_lazy_loader_t.3 }
%struct.hb_lazy_loader_t.3 = type { %struct.hb_atomic_ptr_t.5 }
%struct.anon.0 = type { ptr, ptr, ptr, ptr, ptr, ptr, ptr, ptr, ptr, ptr, ptr, ptr, ptr, ptr, ptr, ptr, ptr, ptr, ptr }

; Function Attrs: mustprogress nounwind uwtable
define linkonce_odr hidden noundef i32 @_ZN9hb_font_t23parent_scale_y_distanceEi(ptr noundef nonnull align 8 dereferenceable(192) %0, i32 noundef %1) #1 comdat align 2 {
  %3 = alloca i32, align 4
  %4 = alloca ptr, align 8
  %5 = alloca i32, align 4
  store ptr %0, ptr %4, align 8
  store i32 %1, ptr %5, align 4
  %6 = load ptr, ptr %4, align 8
  %7 = getelementptr inbounds %struct.hb_font_t, ptr %6, i32 0, i32 3
  %8 = load ptr, ptr %7, align 8
  %9 = icmp ne ptr %8, null
  br i1 %9, label %10, label %32

10:                                               ; preds = %2
  %11 = getelementptr inbounds %struct.hb_font_t, ptr %6, i32 0, i32 3
  %12 = load ptr, ptr %11, align 8
  %13 = getelementptr inbounds %struct.hb_font_t, ptr %12, i32 0, i32 6
  %14 = load i32, ptr %13, align 4
  %15 = getelementptr inbounds %struct.hb_font_t, ptr %6, i32 0, i32 6
  %16 = load i32, ptr %15, align 4
  %17 = icmp ne i32 %14, %16
  br i1 %17, label %18, label %32

18:                                               ; preds = %10
  %19 = load i32, ptr %5, align 4
  %20 = sext i32 %19 to i64
  %21 = getelementptr inbounds %struct.hb_font_t, ptr %6, i32 0, i32 6
  %22 = load i32, ptr %21, align 4
  %23 = sext i32 %22 to i64
  %24 = mul nsw i64 %20, %23
  %25 = getelementptr inbounds %struct.hb_font_t, ptr %6, i32 0, i32 3
  %26 = load ptr, ptr %25, align 8
  %27 = getelementptr inbounds %struct.hb_font_t, ptr %26, i32 0, i32 6
  %28 = load i32, ptr %27, align 4
  %29 = sext i32 %28 to i64
  %30 = sdiv i64 %24, %29
  %31 = trunc i64 %30 to i32
  store i32 %31, ptr %3, align 4
  br label %34

32:                                               ; preds = %10, %2
  %33 = load i32, ptr %5, align 4
  store i32 %33, ptr %3, align 4
  br label %34

34:                                               ; preds = %32, %18
  %35 = load i32, ptr %3, align 4
  ret i32 %35
}

; Function Attrs: mustprogress nounwind uwtable
define linkonce_odr hidden noundef i32 @_ZN9hb_font_t23parent_scale_x_distanceEi(ptr noundef nonnull align 8 dereferenceable(192) %0, i32 noundef %1) #1 comdat align 2 {
  %3 = alloca i32, align 4
  %4 = alloca ptr, align 8
  %5 = alloca i32, align 4
  store ptr %0, ptr %4, align 8
  store i32 %1, ptr %5, align 4
  %6 = load ptr, ptr %4, align 8
  %7 = getelementptr inbounds %struct.hb_font_t, ptr %6, i32 0, i32 3
  %8 = load ptr, ptr %7, align 8
  %9 = icmp ne ptr %8, null
  br i1 %9, label %10, label %32

10:                                               ; preds = %2
  %11 = getelementptr inbounds %struct.hb_font_t, ptr %6, i32 0, i32 3
  %12 = load ptr, ptr %11, align 8
  %13 = getelementptr inbounds %struct.hb_font_t, ptr %12, i32 0, i32 5
  %14 = load i32, ptr %13, align 8
  %15 = getelementptr inbounds %struct.hb_font_t, ptr %6, i32 0, i32 5
  %16 = load i32, ptr %15, align 8
  %17 = icmp ne i32 %14, %16
  br i1 %17, label %18, label %32

18:                                               ; preds = %10
  %19 = load i32, ptr %5, align 4
  %20 = sext i32 %19 to i64
  %21 = getelementptr inbounds %struct.hb_font_t, ptr %6, i32 0, i32 5
  %22 = load i32, ptr %21, align 8
  %23 = sext i32 %22 to i64
  %24 = mul nsw i64 %20, %23
  %25 = getelementptr inbounds %struct.hb_font_t, ptr %6, i32 0, i32 3
  %26 = load ptr, ptr %25, align 8
  %27 = getelementptr inbounds %struct.hb_font_t, ptr %26, i32 0, i32 5
  %28 = load i32, ptr %27, align 8
  %29 = sext i32 %28 to i64
  %30 = sdiv i64 %24, %29
  %31 = trunc i64 %30 to i32
  store i32 %31, ptr %3, align 4
  br label %34

32:                                               ; preds = %10, %2
  %33 = load i32, ptr %5, align 4
  store i32 %33, ptr %3, align 4
  br label %34

34:                                               ; preds = %32, %18
  %35 = load i32, ptr %3, align 4
  ret i32 %35
}

; Function Attrs: mustprogress nounwind uwtable
define linkonce_odr hidden noundef i32 @_ZN9hb_font_t23parent_scale_y_positionEi(ptr noundef nonnull align 8 dereferenceable(192) %0, i32 noundef %1) #1 comdat align 2 {
  %3 = alloca ptr, align 8
  %4 = alloca i32, align 4
  store ptr %0, ptr %3, align 8
  store i32 %1, ptr %4, align 4
  %5 = load ptr, ptr %3, align 8
  %6 = load i32, ptr %4, align 4
  %7 = call noundef i32 @_ZN9hb_font_t23parent_scale_y_distanceEi(ptr noundef nonnull align 8 dereferenceable(192) %5, i32 noundef %6)
  ret i32 %7
}

; Function Attrs: mustprogress nounwind uwtable
define linkonce_odr hidden noundef i32 @_ZN9hb_font_t23parent_scale_x_positionEi(ptr noundef nonnull align 8 dereferenceable(192) %0, i32 noundef %1) #1 comdat align 2 {
  %3 = alloca ptr, align 8
  %4 = alloca i32, align 4
  store ptr %0, ptr %3, align 8
  store i32 %1, ptr %4, align 4
  %5 = load ptr, ptr %3, align 8
  %6 = load i32, ptr %4, align 4
  %7 = call noundef i32 @_ZN9hb_font_t23parent_scale_x_distanceEi(ptr noundef nonnull align 8 dereferenceable(192) %5, i32 noundef %6)
  ret i32 %7
}

; Function Attrs: mustprogress uwtable
define linkonce_odr hidden void @_ZN9hb_font_t21parent_scale_positionEPiS0_(ptr noundef nonnull align 8 dereferenceable(192) %0, ptr noundef %1, ptr noundef %2) #0 comdat align 2 {
  %4 = alloca ptr, align 8
  %5 = alloca ptr, align 8
  %6 = alloca ptr, align 8
  store ptr %0, ptr %4, align 8
  store ptr %1, ptr %5, align 8
  store ptr %2, ptr %6, align 8
  %7 = load ptr, ptr %4, align 8
  %8 = load ptr, ptr %5, align 8
  %9 = load i32, ptr %8, align 4
  %10 = call noundef i32 @_ZN9hb_font_t23parent_scale_x_positionEi(ptr noundef nonnull align 8 dereferenceable(192) %7, i32 noundef %9)
  %11 = load ptr, ptr %5, align 8
  store i32 %10, ptr %11, align 4
  %12 = load ptr, ptr %6, align 8
  %13 = load i32, ptr %12, align 4
  %14 = call noundef i32 @_ZN9hb_font_t23parent_scale_y_positionEi(ptr noundef nonnull align 8 dereferenceable(192) %7, i32 noundef %13)
  %15 = load ptr, ptr %6, align 8
  store i32 %14, ptr %15, align 4
  ret void
}

; Function Attrs: mustprogress uwtable
define linkonce_odr hidden noundef i32 @_ZN9hb_font_t23get_glyph_contour_pointEjjPiS0_(ptr noundef nonnull align 8 dereferenceable(192) %0, i32 noundef %1, i32 noundef %2, ptr noundef %3, ptr noundef %4) #0 comdat align 2 {
  %6 = alloca ptr, align 8
  %7 = alloca i32, align 4
  %8 = alloca i32, align 4
  %9 = alloca ptr, align 8
  %10 = alloca ptr, align 8
  store ptr %0, ptr %6, align 8
  store i32 %1, ptr %7, align 4
  store i32 %2, ptr %8, align 4
  store ptr %3, ptr %9, align 8
  store ptr %4, ptr %10, align 8
  %11 = load ptr, ptr %6, align 8
  %12 = load ptr, ptr %10, align 8
  store i32 0, ptr %12, align 4
  %13 = load ptr, ptr %9, align 8
  store i32 0, ptr %13, align 4
  %14 = getelementptr inbounds %struct.hb_font_t, ptr %11, i32 0, i32 25
  %15 = load ptr, ptr %14, align 8
  %16 = getelementptr inbounds %struct.hb_font_funcs_t, ptr %15, i32 0, i32 3
  %17 = getelementptr inbounds %"struct.hb_font_funcs_t::get_t::get_funcs_t", ptr %16, i32 0, i32 14
  %18 = load ptr, ptr %17, align 8
  %19 = getelementptr inbounds %struct.hb_font_t, ptr %11, i32 0, i32 26
  %20 = load ptr, ptr %19, align 8
  %21 = load i32, ptr %7, align 4
  %22 = load i32, ptr %8, align 4
  %23 = load ptr, ptr %9, align 8
  %24 = load ptr, ptr %10, align 8
  %25 = getelementptr inbounds %struct.hb_font_t, ptr %11, i32 0, i32 25
  %26 = load ptr, ptr %25, align 8
  %27 = getelementptr inbounds %struct.hb_font_funcs_t, ptr %26, i32 0, i32 1
  %28 = load ptr, ptr %27, align 8
  %29 = icmp ne ptr %28, null
  br i1 %29, label %31, label %30

30:                                               ; preds = %5
  br label %38

31:                                               ; preds = %5
  %32 = getelementptr inbounds %struct.hb_font_t, ptr %11, i32 0, i32 25
  %33 = load ptr, ptr %32, align 8
  %34 = getelementptr inbounds %struct.hb_font_funcs_t, ptr %33, i32 0, i32 1
  %35 = load ptr, ptr %34, align 8
  %36 = getelementptr inbounds %struct.anon.0, ptr %35, i32 0, i32 14
  %37 = load ptr, ptr %36, align 8
  br label %38

38:                                               ; preds = %31, %30
  %39 = phi ptr [ null, %30 ], [ %37, %31 ]
  %40 = call noundef i32 %18(ptr noundef %11, ptr noundef %20, i32 noundef %21, i32 noundef %22, ptr noundef %23, ptr noundef %24, ptr noundef %39)
  ret i32 %40
}

; Function Attrs: mustprogress uwtable
define internal noundef i32 @_ZL39hb_font_get_glyph_contour_point_defaultP9hb_font_tPvjjPiS2_S1_(ptr noundef %0, ptr noundef %1, i32 noundef %2, i32 noundef %3, ptr noundef %4, ptr noundef %5, ptr noundef %6) #0 {
  %8 = alloca ptr, align 8
  %9 = alloca ptr, align 8
  %10 = alloca i32, align 4
  %11 = alloca i32, align 4
  %12 = alloca ptr, align 8
  %13 = alloca ptr, align 8
  %14 = alloca ptr, align 8
  %15 = alloca i32, align 4
  store ptr %0, ptr %8, align 8
  store ptr %1, ptr %9, align 8
  store i32 %2, ptr %10, align 4
  store i32 %3, ptr %11, align 4
  store ptr %4, ptr %12, align 8
  store ptr %5, ptr %13, align 8
  store ptr %6, ptr %14, align 8
  %16 = load ptr, ptr %8, align 8
  %17 = getelementptr inbounds %struct.hb_font_t, ptr %16, i32 0, i32 3
  %18 = load ptr, ptr %17, align 8
  %19 = load i32, ptr %10, align 4
  %20 = load i32, ptr %11, align 4
  %21 = load ptr, ptr %12, align 8
  %22 = load ptr, ptr %13, align 8
  %23 = call noundef i32 @_ZN9hb_font_t23get_glyph_contour_pointEjjPiS0_(ptr noundef nonnull align 8 dereferenceable(192) %18, i32 noundef %19, i32 noundef %20, ptr noundef %21, ptr noundef %22)
  store i32 %23, ptr %15, align 4
  %24 = load i32, ptr %15, align 4
  %25 = icmp ne i32 %24, 0
  br i1 %25, label %26, label %30

26:                                               ; preds = %7
  %27 = load ptr, ptr %8, align 8
  %28 = load ptr, ptr %12, align 8
  %29 = load ptr, ptr %13, align 8
  call void @_ZN9hb_font_t21parent_scale_positionEPiS0_(ptr noundef nonnull align 8 dereferenceable(192) %27, ptr noundef %28, ptr noundef %29)
  br label %30

30:                                               ; preds = %26, %7
  %31 = load i32, ptr %15, align 4
  ret i32 %31
}