; Function Attrs: mustprogress uwtable
define internal noundef i32 @_ZL39hb_font_get_glyph_contour_point_defaultP9hb_font_tPvjjPiS2_S1_(ptr nocapture noundef readonly %0, ptr nocapture readnone %1, i32 noundef %2, i32 noundef %3, ptr noundef %4, ptr noundef %5, ptr nocapture readnone %6) #1 {
  %8 = getelementptr inbounds i8, ptr %0, i64 24
  %9 = load ptr, ptr %8, align 8
  store i32 0, ptr %5, align 4
  store i32 0, ptr %4, align 4
  %10 = getelementptr inbounds i8, ptr %9, i64 144
  %11 = load ptr, ptr %10, align 8
  %12 = getelementptr inbounds i8, ptr %11, i64 144
  %13 = load ptr, ptr %12, align 8
  %14 = getelementptr inbounds i8, ptr %9, i64 152
  %15 = load ptr, ptr %14, align 8
  %16 = getelementptr inbounds i8, ptr %11, i64 16
  %17 = load ptr, ptr %16, align 8
  %.not.i = icmp eq ptr %17, null
  br i1 %.not.i, label %_ZN9hb_font_t23get_glyph_contour_pointEjjPiS0_.exit, label %18

18:                                               ; preds = %7
  %19 = getelementptr inbounds i8, ptr %17, i64 112
  %20 = load ptr, ptr %19, align 8
  br label %_ZN9hb_font_t23get_glyph_contour_pointEjjPiS0_.exit

_ZN9hb_font_t23get_glyph_contour_pointEjjPiS0_.exit: ; preds = %7, %18
  %21 = phi ptr [ %20, %18 ], [ null, %7 ]
  %22 = tail call noundef i32 %13(ptr noundef nonnull %9, ptr noundef %15, i32 noundef %2, i32 noundef %3, ptr noundef nonnull %4, ptr noundef nonnull %5, ptr noundef %21)
  %.not = icmp eq i32 %22, 0
  br i1 %.not, label %52, label %23

23:                                               ; preds = %_ZN9hb_font_t23get_glyph_contour_pointEjjPiS0_.exit
  %24 = load i32, ptr %4, align 4
  %25 = load ptr, ptr %8, align 8
  %.not.i.i.i = icmp eq ptr %25, null
  br i1 %.not.i.i.i, label %_ZN9hb_font_t23parent_scale_x_positionEi.exit.i, label %26

26:                                               ; preds = %23
  %27 = getelementptr inbounds i8, ptr %25, i64 40
  %28 = load i32, ptr %27, align 8
  %29 = getelementptr inbounds i8, ptr %0, i64 40
  %30 = load i32, ptr %29, align 8
  %.not6.i.i.i = icmp eq i32 %28, %30
  br i1 %.not6.i.i.i, label %_ZN9hb_font_t23parent_scale_x_positionEi.exit.i, label %31

31:                                               ; preds = %26
  %32 = sext i32 %24 to i64
  %33 = sext i32 %30 to i64
  %34 = mul nsw i64 %33, %32
  %35 = sext i32 %28 to i64
  %36 = sdiv i64 %34, %35
  %37 = trunc i64 %36 to i32
  br label %_ZN9hb_font_t23parent_scale_x_positionEi.exit.i

_ZN9hb_font_t23parent_scale_x_positionEi.exit.i:  ; preds = %31, %26, %23
  %.0.i.i.i = phi i32 [ %37, %31 ], [ %24, %26 ], [ %24, %23 ]
  store i32 %.0.i.i.i, ptr %4, align 4
  %38 = load i32, ptr %5, align 4
  %39 = load ptr, ptr %8, align 8
  %.not.i.i5.i = icmp eq ptr %39, null
  br i1 %.not.i.i5.i, label %_ZN9hb_font_t21parent_scale_positionEPiS0_.exit, label %40

40:                                               ; preds = %_ZN9hb_font_t23parent_scale_x_positionEi.exit.i
  %41 = getelementptr inbounds i8, ptr %39, i64 44
  %42 = load i32, ptr %41, align 4
  %43 = getelementptr inbounds i8, ptr %0, i64 44
  %44 = load i32, ptr %43, align 4
  %.not6.i.i6.i = icmp eq i32 %42, %44
  br i1 %.not6.i.i6.i, label %_ZN9hb_font_t21parent_scale_positionEPiS0_.exit, label %45

45:                                               ; preds = %40
  %46 = sext i32 %38 to i64
  %47 = sext i32 %44 to i64
  %48 = mul nsw i64 %47, %46
  %49 = sext i32 %42 to i64
  %50 = sdiv i64 %48, %49
  %51 = trunc i64 %50 to i32
  br label %_ZN9hb_font_t21parent_scale_positionEPiS0_.exit

_ZN9hb_font_t21parent_scale_positionEPiS0_.exit:  ; preds = %_ZN9hb_font_t23parent_scale_x_positionEi.exit.i, %40, %45
  %.0.i.i7.i = phi i32 [ %51, %45 ], [ %38, %40 ], [ %38, %_ZN9hb_font_t23parent_scale_x_positionEi.exit.i ]
  store i32 %.0.i.i7.i, ptr %5, align 4
  br label %52

52:                                               ; preds = %_ZN9hb_font_t21parent_scale_positionEPiS0_.exit, %_ZN9hb_font_t23get_glyph_contour_pointEjjPiS0_.exit
  ret i32 %22
}